MODULE windows x86 7695093D7BC048A48B2894E2210B32C01 crash.pdb
FUNC 1000 b 0 static int * newPtr()
FUNC 1010 e 0 static void resetPtr(int * *)
FUNC 1020 38 0 testCrash()
FUNC 1060 a 0 static void usePtr(int *)
FUNC 106a 9 0 operator new[](unsigned int)
FUNC 1073 53 0 static int dllmain_crt_dispatch(struct HINSTANCE__ *, const unsigned long, void *)
FUNC 10c6 10a 0 static int dllmain_crt_process_attach(struct HINSTANCE__ *, void *)
FUNC 11d0 92 0 static int dllmain_crt_process_detach(const bool)
FUNC 1262 106 0 static int dllmain_dispatch(struct HINSTANCE__ *, const unsigned long, void *)
FUNC 1368 2b 0 static int dllmain_raw(struct HINSTANCE__ *, const unsigned long, void *)
FUNC 1393 9 c _CRT_INIT
FUNC 139c 23 c _DllMainCRTStartup
FUNC 13bf 30 0 operator new(unsigned int)
FUNC 13ef 4d 0 static unsigned int __get_entropy()
FUNC 143c 4b 0 __security_init_cookie
FUNC 1487 22 c DllMain
FUNC 14a9 c 0 __scrt_initialize_type_info()
FUNC 14b5 c 0 __scrt_uninitialize_type_info()
FUNC 14c1 6 0 __local_stdio_printf_options
FUNC 14c7 6 0 __local_stdio_scanf_options
FUNC 14cd 1d 0 __scrt_initialize_default_local_stdio_options
FUNC 14ea 14 0 __crt_fast_decode_pointer<void (**)(void)>(void (** const)(void))
FUNC 14fe 1d 0 __crt_fast_encode_pointer<void (**)(void)>(void (** const)(void))
FUNC 151b d 0 __crt_rotate_pointer_value(unsigned int,int)
FUNC 1528 d 0 __scrt_narrow_argv_policy::configure_argv()
FUNC 1535 44 0 static struct _IMAGE_SECTION_HEADER * find_pe_section(unsigned char *, const unsigned int)
FUNC 1579 5 0 __scrt_narrow_environment_policy::initialize_environment()
FUNC 157e 34 0 static bool is_potentially_valid_image_base(void *)
FUNC 15b2 7 0 NtCurrentTeb
FUNC 15b9 32 0 __scrt_acquire_startup_lock
FUNC 15eb 2b 0 __scrt_dllmain_after_initialize_c
FUNC 1616 e 0 __scrt_dllmain_before_initialize_c
FUNC 1624 1f 0 __scrt_dllmain_crt_thread_attach
FUNC 1643 d 0 __scrt_dllmain_crt_thread_detach
FUNC 1650 34 0 __scrt_dllmain_exception_filter
FUNC 1684 23 0 __scrt_dllmain_uninitialize_c
FUNC 16a7 d 0 __scrt_dllmain_uninitialize_critical
FUNC 16b4 39 0 __scrt_initialize_crt
FUNC 16ed a5 0 __scrt_initialize_onexit_tables
FUNC 1792 94 0 __scrt_is_nonwritable_in_current_image
FUNC 1826 1d 0 __scrt_release_startup_lock
FUNC 1843 28 0 __scrt_uninitialize_crt
FUNC 186b 3b 0 _onexit
FUNC 18a6 31 0 at_quick_exit
FUNC 18d7 15 0 atexit
FUNC 18ec 6 0 __scrt_get_dyn_tls_init_callback
FUNC 18f2 11a 0 __scrt_fastfail
FUNC 1a0c 31 0 __scrt_get_show_window_mode
FUNC 1a3d 5 0 __scrt_initialize_mta
FUNC 1a42 3 0 __scrt_initialize_winrt
FUNC 1a45 43 0 __scrt_is_managed_app
FUNC 1a88 c 0 __scrt_set_unhandled_exception_filter
FUNC 1a94 3 0 __scrt_stub_for_initialize_mta
FUNC 1a97 41 4 __scrt_unhandled_exception_filter
FUNC 1ad8 8 4 _crt_debugger_hook
FUNC 1ae0 2c 0 _RTC_Initialize
FUNC 1b0c 2c 0 _RTC_Terminate
FUNC 1b40 46 0 _SEH_prolog4
FUNC 1b86 15 0 _SEH_epilog4
FUNC 1b9b 23 0 _except_handler4
FUNC 1bbe 1 0 _guard_check_icall_nop
FUNC 1bbf a 0 ReadNoFence
FUNC 1bc9 a 0 ReadPointerNoFence
FUNC 1bd3 12 0 _guard_icall_checks_enforced
FUNC 1be5 1d 0 std::bad_alloc::bad_alloc(char const * const)
FUNC 1c02 1b 0 std::bad_alloc::bad_alloc(std::bad_alloc const &)
FUNC 1c1d 18 0 std::bad_alloc::bad_alloc()
FUNC 1c35 1b 0 std::bad_array_new_length::bad_array_new_length(std::bad_array_new_length const &)
FUNC 1c50 18 0 std::bad_array_new_length::bad_array_new_length()
FUNC 1c68 2c 0 std::exception::exception(std::exception const &)
FUNC 1c94 1d 0 std::exception::exception(char const * const,int)
FUNC 1cb1 11 0 std::bad_alloc::~bad_alloc()
FUNC 1cc2 11 0 std::bad_array_new_length::~bad_array_new_length()
FUNC 1cd3 11 0 std::exception::~exception()
FUNC 1ce4 2d 0 std::bad_alloc::`scalar deleting destructor'(unsigned int)
FUNC 1d11 2d 0 std::bad_array_new_length::`scalar deleting destructor'(unsigned int)
FUNC 1d3e 2d 0 std::exception::`scalar deleting destructor'(unsigned int)
FUNC 1d6b 1d 0 __scrt_throw_std_bad_alloc()
FUNC 1d88 1d 0 __scrt_throw_std_bad_array_new_length()
FUNC 1da5 d 0 std::exception::what()
FUNC 1db2 197 0 __isa_available_init
FUNC 1f49 4 0 _get_startup_argv_mode
FUNC 1f4d c 0 __scrt_is_ucrt_dll_in_use
FUNC 1f59 11 0 __security_check_cookie
FUNC 1f6a e 0 operator delete(void *,unsigned int)
FUNC 1f78 7 0 type_info::~type_info()
FUNC 1f7f 23 0 type_info::`scalar deleting destructor'(unsigned int)
FUNC 1fa2 28 0 __raise_securityfailure
FUNC 1fca f9 0 __report_gsfailure
FUNC 20c3 c 0 __report_rangecheckfailure
FUNC 20cf ce 0 __report_securityfailure
FUNC 219d 114 0 __report_securityfailureEx
FUNC 22b1 5 0 operator delete(void *)
PUBLIC 22b6 0 __std_type_info_destroy_list
PUBLIC 22bc 0 memset
PUBLIC 22c2 0 _except_handler4_common
PUBLIC 22c8 0 __std_exception_copy
PUBLIC 22ce 0 __std_exception_destroy
PUBLIC 22d4 8 _CxxThrowException
PUBLIC 22da 0 _initterm
PUBLIC 22e0 0 _initterm_e
PUBLIC 22e6 0 _callnewh
PUBLIC 22ec 0 malloc
PUBLIC 22f2 0 _seh_filter_dll
PUBLIC 22f8 0 _configure_narrow_argv
PUBLIC 22fe 0 _initialize_narrow_environment
PUBLIC 2304 0 _initialize_onexit_table
PUBLIC 230a 0 _register_onexit_function
PUBLIC 2310 0 _execute_onexit_table
PUBLIC 2316 0 _crt_atexit
PUBLIC 231c 0 _crt_at_quick_exit
PUBLIC 2322 0 _cexit
PUBLIC 2328 0 terminate
PUBLIC 232e 0 free
PUBLIC 2334 4 QueryPerformanceCounter
PUBLIC 233a 0 GetCurrentProcessId
PUBLIC 2340 0 GetCurrentThreadId
PUBLIC 2346 4 GetSystemTimeAsFileTime
PUBLIC 234c 4 DisableThreadLibraryCalls
PUBLIC 2352 4 InitializeSListHead
PUBLIC 2358 0 IsDebuggerPresent
PUBLIC 235e 4 UnhandledExceptionFilter
PUBLIC 2364 4 SetUnhandledExceptionFilter
PUBLIC 236a 4 GetStartupInfoW
PUBLIC 2370 4 IsProcessorFeaturePresent
PUBLIC 2376 4 GetModuleHandleW
PUBLIC 237c 0 GetCurrentProcess
PUBLIC 2382 8 TerminateProcess
FUNC 2388 3 0 __scrt_stub_for_acrt_initialize
FUNC 238b 3 0 __scrt_stub_for_acrt_thread_attach
FUNC 238e 3 0 __scrt_stub_for_acrt_thread_detach
FUNC 2391 3 4 __scrt_stub_for_acrt_uninitialize
FUNC 2394 3 4 __scrt_stub_for_acrt_uninitialize_critical
FUNC 2397 3 0 __scrt_stub_for_is_c_termination_complete
STACK WIN 4 1000 b 0 0 0 0 0 0 1 $T0 .raSearch = $eip $T0 ^ = $esp $T0 4 + = 
STACK WIN 4 1010 e 3 0 4 0 0 0 1 $T0 $ebp = $eip $T0 4 + ^ = $ebp $T0 ^ = $esp $T0 8 + = 
STACK WIN 4 1020 38 4 0 0 0 4 0 1 $T0 $ebp = $eip $T0 4 + ^ = $ebp $T0 ^ = $esp $T0 8 + = 
STACK WIN 4 1060 a 3 0 4 0 0 0 1 $T0 $ebp = $eip $T0 4 + ^ = $ebp $T0 ^ = $esp $T0 8 + = 
STACK WIN 4 106a 9 3 0 4 0 0 0 1 $T0 $ebp = $eip $T0 4 + ^ = $ebp $T0 ^ = $esp $T0 8 + = 
STACK WIN 4 1073 53 3 0 c 0 0 0 1 $T0 $ebp = $eip $T0 4 + ^ = $ebp $T0 ^ = $esp $T0 8 + = 
STACK WIN 4 10c6 10a c 0 8 10 20 0 1 $T0 $ebp = $eip $T0 4 + ^ = $ebp $T0 ^ = $esp $T0 8 + =  $20 $T0 36 - ^ =  $23 $T0 40 - ^ =  $24 $T0 44 - ^ = 
STACK WIN 4 11bb c 0 0 8 10 20 0 1 $T0 $ebp = $T2 $esp = $T1 .raSearchStart = $eip $T1 ^ = $ebp $T0 = $esp $T1 4 + = 
STACK WIN 4 11d0 92 c 0 4 10 1c 0 1 $T0 $ebp = $eip $T0 4 + ^ = $ebp $T0 ^ = $esp $T0 8 + =  $20 $T0 32 - ^ =  $23 $T0 36 - ^ =  $24 $T0 40 - ^ = 
STACK WIN 4 124b e 0 0 4 10 1c 0 1 $T0 $ebp = $T2 $esp = $T1 .raSearchStart = $eip $T1 ^ = $ebp $T0 = $esp $T1 4 + = 
STACK WIN 4 1262 106 c 0 c 10 1c 0 1 $T0 $ebp = $eip $T0 4 + ^ = $ebp $T0 ^ = $esp $T0 8 + =  $20 $T0 32 - ^ =  $23 $T0 36 - ^ =  $24 $T0 40 - ^ = 
STACK WIN 4 1328 1f 0 0 c 10 1c 0 1 $T0 $ebp = $T2 $esp = $T1 .raSearchStart = $eip $T1 ^ = $ebp $T0 = $esp $T1 4 + = 
STACK WIN 4 1368 2b 4 0 c 0 0 0 1 $T0 $ebp = $eip $T0 4 + ^ = $ebp $T0 ^ = $esp $T0 8 + = 
STACK WIN 4 136c 23 0 0 c 4 0 0 1 $T0 $ebp = $eip $T0 4 + ^ = $ebp $T0 ^ = $esp $T0 8 + =  $23 $T0 4 - ^ = 
STACK WIN 4 1393 9 3 0 c 0 0 0 1 $T0 $ebp = $eip $T0 4 + ^ = $ebp $T0 ^ = $esp $T0 8 + = 
STACK WIN 4 139c 23 3 0 c 0 0 0 1 $T0 $ebp = $eip $T0 4 + ^ = $ebp $T0 ^ = $esp $T0 8 + = 
STACK WIN 4 13bf 30 3 0 4 0 0 0 1 $T0 $ebp = $eip $T0 4 + ^ = $ebp $T0 ^ = $esp $T0 8 + = 
STACK WIN 4 13ef 4d 6 0 0 0 14 0 1 $T0 $ebp = $eip $T0 4 + ^ = $ebp $T0 ^ = $esp $T0 8 + = 
STACK WIN 4 143c 4b 8 0 0 0 0 0 1 $T0 .raSearch = $eip $T0 ^ = $esp $T0 4 + = 
STACK WIN 4 1443 43 1 0 0 4 0 0 1 $T0 .raSearch = $eip $T0 ^ = $esp $T0 4 + =  $23 $T0 4 - ^ = 
STACK WIN 4 1444 3b 0 0 0 8 0 0 1 $T0 .raSearch = $eip $T0 ^ = $esp $T0 4 + =  $23 $T0 4 - ^ =  $24 $T0 8 - ^ = 
STACK WIN 4 1487 22 3 0 c 0 0 0 1 $T0 $ebp = $eip $T0 4 + ^ = $ebp $T0 ^ = $esp $T0 8 + = 
STACK WIN 4 14a9 c 0 0 0 0 0 0 1 $T0 .raSearch = $eip $T0 ^ = $esp $T0 4 + = 
STACK WIN 4 14b5 c 0 0 0 0 0 0 1 $T0 .raSearch = $eip $T0 ^ = $esp $T0 4 + = 
STACK WIN 4 14c1 6 0 0 0 0 0 0 1 $T0 .raSearch = $eip $T0 ^ = $esp $T0 4 + = 
STACK WIN 4 14c7 6 0 0 0 0 0 0 1 $T0 .raSearch = $eip $T0 ^ = $esp $T0 4 + = 
STACK WIN 4 14cd 1d 0 0 0 0 0 0 1 $T0 .raSearch = $eip $T0 ^ = $esp $T0 4 + = 
STACK WIN 4 14ea 14 3 0 4 0 0 0 1 $T0 $ebp = $eip $T0 4 + ^ = $ebp $T0 ^ = $esp $T0 8 + = 
STACK WIN 4 14fe 1d 3 0 4 0 0 0 1 $T0 $ebp = $eip $T0 4 + ^ = $ebp $T0 ^ = $esp $T0 8 + = 
STACK WIN 4 151b d 3 0 8 0 0 0 1 $T0 $ebp = $eip $T0 4 + ^ = $ebp $T0 ^ = $esp $T0 8 + = 
STACK WIN 4 1528 d 0 0 0 0 0 0 1 $T0 .raSearch = $eip $T0 ^ = $esp $T0 4 + = 
STACK WIN 4 1535 44 7 0 8 0 0 0 1 $T0 $ebp = $eip $T0 4 + ^ = $ebp $T0 ^ = $esp $T0 8 + = 
STACK WIN 4 153c 37 0 0 8 4 0 0 1 $T0 $ebp = $eip $T0 4 + ^ = $ebp $T0 ^ = $esp $T0 8 + =  $23 $T0 4 - ^ = 
STACK WIN 4 1579 5 0 0 0 0 0 0 1 $T0 .raSearch = $eip $T0 ^ = $esp $T0 4 + = 
STACK WIN 4 157e 34 3 0 4 0 0 0 1 $T0 $ebp = $eip $T0 4 + ^ = $ebp $T0 ^ = $esp $T0 8 + = 
STACK WIN 4 15b2 7 0 0 0 0 0 0 1 $T0 .raSearch = $eip $T0 ^ = $esp $T0 4 + = 
STACK WIN 4 15b9 32 1 0 0 0 0 0 1 $T0 .raSearch = $eip $T0 ^ = $esp $T0 4 + = 
STACK WIN 4 15ba 30 0 0 0 4 0 0 1 $T0 .raSearch = $eip $T0 ^ = $esp $T0 4 + =  $23 $T0 4 - ^ = 
STACK WIN 4 15eb 2b 0 0 0 0 0 0 1 $T0 .raSearch = $eip $T0 ^ = $esp $T0 4 + = 
STACK WIN 4 1616 e 0 0 0 0 0 0 1 $T0 .raSearch = $eip $T0 ^ = $esp $T0 4 + = 
STACK WIN 4 1624 1f 0 0 0 0 0 0 1 $T0 .raSearch = $eip $T0 ^ = $esp $T0 4 + = 
STACK WIN 4 1643 d 0 0 0 0 0 0 1 $T0 .raSearch = $eip $T0 ^ = $esp $T0 4 + = 
STACK WIN 4 1650 34 3 0 18 0 0 0 1 $T0 $ebp = $eip $T0 4 + ^ = $ebp $T0 ^ = $esp $T0 8 + = 
STACK WIN 4 1684 23 0 0 0 0 0 0 1 $T0 .raSearch = $eip $T0 ^ = $esp $T0 4 + = 
STACK WIN 4 16a7 d 0 0 0 0 0 0 1 $T0 .raSearch = $eip $T0 ^ = $esp $T0 4 + = 
STACK WIN 4 16b4 39 3 0 4 0 0 0 1 $T0 $ebp = $eip $T0 4 + ^ = $ebp $T0 ^ = $esp $T0 8 + = 
STACK WIN 4 16ed a5 6 0 4 0 c 0 1 $T0 $ebp = $eip $T0 4 + ^ = $ebp $T0 ^ = $esp $T0 8 + = 
STACK WIN 4 1701 87 0 0 4 4 c 0 1 $T0 $ebp = $eip $T0 4 + ^ = $ebp $T0 ^ = $esp $T0 8 + =  $23 $T0 16 - ^ = 
STACK WIN 4 1745 39 0 0 4 8 c 0 1 $T0 $ebp = $eip $T0 4 + ^ = $ebp $T0 ^ = $esp $T0 8 + =  $23 $T0 16 - ^ =  $24 $T0 20 - ^ = 
STACK WIN 4 1792 94 c 0 4 10 18 0 1 $T0 $ebp = $eip $T0 4 + ^ = $ebp $T0 ^ = $esp $T0 8 + =  $20 $T0 28 - ^ =  $23 $T0 32 - ^ =  $24 $T0 36 - ^ = 
STACK WIN 4 17f7 13 0 0 4 10 18 0 1 $T0 $ebp = $T2 $esp = $T1 .raSearchStart = $eip $T1 ^ = $ebp $T0 = $esp $T1 4 + = 
STACK WIN 4 1826 1d 3 0 4 0 0 0 1 $T0 $ebp = $eip $T0 4 + ^ = $ebp $T0 ^ = $esp $T0 8 + = 
STACK WIN 4 1843 28 3 0 8 0 0 0 1 $T0 $ebp = $eip $T0 4 + ^ = $ebp $T0 ^ = $esp $T0 8 + = 
STACK WIN 4 186b 3b 3 0 4 0 0 0 1 $T0 $ebp = $eip $T0 4 + ^ = $ebp $T0 ^ = $esp $T0 8 + = 
STACK WIN 4 18a6 31 3 0 4 0 0 0 1 $T0 $ebp = $eip $T0 4 + ^ = $ebp $T0 ^ = $esp $T0 8 + = 
STACK WIN 4 18d7 15 3 0 4 0 0 0 1 $T0 $ebp = $eip $T0 4 + ^ = $ebp $T0 ^ = $esp $T0 8 + = 
STACK WIN 4 18ec 6 0 0 0 0 0 0 1 $T0 .raSearch = $eip $T0 ^ = $esp $T0 4 + = 
STACK WIN 4 18f2 11a a 0 4 4 324 0 1 $T0 $ebp = $eip $T0 4 + ^ = $ebp $T0 ^ = $esp $T0 8 + =  $20 $T0 808 - ^ = 
STACK WIN 4 1a0c 31 6 0 0 0 44 0 1 $T0 $ebp = $eip $T0 4 + ^ = $ebp $T0 ^ = $esp $T0 8 + = 
STACK WIN 4 1a3d 5 0 0 0 0 0 0 1 $T0 .raSearch = $eip $T0 ^ = $esp $T0 4 + = 
STACK WIN 4 1a42 3 0 0 0 0 0 0 1 $T0 .raSearch = $eip $T0 ^ = $esp $T0 4 + = 
STACK WIN 4 1a45 43 0 0 0 0 0 0 1 $T0 .raSearch = $eip $T0 ^ = $esp $T0 4 + = 
STACK WIN 4 1a88 c 0 0 0 0 0 0 1 $T0 .raSearch = $eip $T0 ^ = $esp $T0 4 + = 
STACK WIN 4 1a94 3 0 0 0 0 0 0 1 $T0 .raSearch = $eip $T0 ^ = $esp $T0 4 + = 
STACK WIN 4 1a97 41 3 0 4 0 0 0 1 $T0 $ebp = $eip $T0 4 + ^ = $ebp $T0 ^ = $esp $T0 8 + = 
STACK WIN 4 1ad8 8 0 0 4 0 0 0 1 $T0 .raSearch = $eip $T0 ^ = $esp $T0 4 + = 
STACK WIN 4 1ae0 2c 2 0 0 0 0 0 1 $T0 .raSearch = $eip $T0 ^ = $esp $T0 4 + = 
STACK WIN 4 1ae1 2a 1 0 0 4 0 0 1 $T0 .raSearch = $eip $T0 ^ = $esp $T0 4 + =  $20 $T0 4 - ^ = 
STACK WIN 4 1ae2 28 0 0 0 8 0 0 1 $T0 .raSearch = $eip $T0 ^ = $esp $T0 4 + =  $20 $T0 4 - ^ =  $23 $T0 8 - ^ = 
STACK WIN 4 1af1 18 0 0 0 c 0 0 1 $T0 .raSearch = $eip $T0 ^ = $esp $T0 4 + =  $20 $T0 4 - ^ =  $23 $T0 8 - ^ =  $24 $T0 12 - ^ = 
STACK WIN 4 1b0c 2c 2 0 0 0 0 0 1 $T0 .raSearch = $eip $T0 ^ = $esp $T0 4 + = 
STACK WIN 4 1b0d 2a 1 0 0 4 0 0 1 $T0 .raSearch = $eip $T0 ^ = $esp $T0 4 + =  $20 $T0 4 - ^ = 
STACK WIN 4 1b0e 28 0 0 0 8 0 0 1 $T0 .raSearch = $eip $T0 ^ = $esp $T0 4 + =  $20 $T0 4 - ^ =  $23 $T0 8 - ^ = 
STACK WIN 4 1b1d 18 0 0 0 c 0 0 1 $T0 .raSearch = $eip $T0 ^ = $esp $T0 4 + =  $20 $T0 4 - ^ =  $23 $T0 8 - ^ =  $24 $T0 12 - ^ = 
STACK WIN 4 1b9b 23 3 0 10 0 0 0 1 $T0 $ebp = $eip $T0 4 + ^ = $ebp $T0 ^ = $esp $T0 8 + = 
STACK WIN 4 1bbe 1 0 0 0 0 0 0 1 $T0 .raSearch = $eip $T0 ^ = $esp $T0 4 + = 
STACK WIN 4 1bbf a 3 0 4 0 0 0 1 $T0 $ebp = $eip $T0 4 + ^ = $ebp $T0 ^ = $esp $T0 8 + = 
STACK WIN 4 1bc9 a 3 0 4 0 0 0 1 $T0 $ebp = $eip $T0 4 + ^ = $ebp $T0 ^ = $esp $T0 8 + = 
STACK WIN 4 1bd3 12 0 0 0 0 0 0 1 $T0 .raSearch = $eip $T0 ^ = $esp $T0 4 + = 
STACK WIN 4 1be5 1d 3 0 4 0 0 0 1 $T0 $ebp = $eip $T0 4 + ^ = $ebp $T0 ^ = $esp $T0 8 + = 
STACK WIN 4 1c02 1b 9 0 4 0 0 0 1 $T0 $ebp = $eip $T0 4 + ^ = $ebp $T0 ^ = $esp $T0 8 + = 
STACK WIN 4 1c06 13 5 0 4 4 0 0 1 $T0 $ebp = $eip $T0 4 + ^ = $ebp $T0 ^ = $esp $T0 8 + =  $23 $T0 4 - ^ = 
STACK WIN 4 1c1d 18 0 0 0 0 0 0 1 $T0 .raSearch = $eip $T0 ^ = $esp $T0 4 + = 
STACK WIN 4 1c35 1b 9 0 4 0 0 0 1 $T0 $ebp = $eip $T0 4 + ^ = $ebp $T0 ^ = $esp $T0 8 + = 
STACK WIN 4 1c39 13 5 0 4 4 0 0 1 $T0 $ebp = $eip $T0 4 + ^ = $ebp $T0 ^ = $esp $T0 8 + =  $23 $T0 4 - ^ = 
STACK WIN 4 1c50 18 0 0 0 0 0 0 1 $T0 .raSearch = $eip $T0 ^ = $esp $T0 4 + = 
STACK WIN 4 1c68 2c 6 0 4 0 0 0 1 $T0 $ebp = $eip $T0 4 + ^ = $ebp $T0 ^ = $esp $T0 8 + = 
STACK WIN 4 1c6c 24 2 0 4 4 0 0 1 $T0 $ebp = $eip $T0 4 + ^ = $ebp $T0 ^ = $esp $T0 8 + =  $23 $T0 4 - ^ = 
STACK WIN 4 1c94 1d 3 0 8 0 0 0 1 $T0 $ebp = $eip $T0 4 + ^ = $ebp $T0 ^ = $esp $T0 8 + = 
STACK WIN 4 1cb1 11 0 0 0 0 0 0 1 $T0 .raSearch = $eip $T0 ^ = $esp $T0 4 + = 
STACK WIN 4 1cc2 11 0 0 0 0 0 0 1 $T0 .raSearch = $eip $T0 ^ = $esp $T0 4 + = 
STACK WIN 4 1cd3 11 0 0 0 0 0 0 1 $T0 .raSearch = $eip $T0 ^ = $esp $T0 4 + = 
STACK WIN 4 1ce4 2d 6 0 4 0 0 0 1 $T0 $ebp = $eip $T0 4 + ^ = $ebp $T0 ^ = $esp $T0 8 + = 
STACK WIN 4 1ce8 25 2 0 4 4 0 0 1 $T0 $ebp = $eip $T0 4 + ^ = $ebp $T0 ^ = $esp $T0 8 + =  $23 $T0 4 - ^ = 
STACK WIN 4 1d11 2d 6 0 4 0 0 0 1 $T0 $ebp = $eip $T0 4 + ^ = $ebp $T0 ^ = $esp $T0 8 + = 
STACK WIN 4 1d15 25 2 0 4 4 0 0 1 $T0 $ebp = $eip $T0 4 + ^ = $ebp $T0 ^ = $esp $T0 8 + =  $23 $T0 4 - ^ = 
STACK WIN 4 1d3e 2d 6 0 4 0 0 0 1 $T0 $ebp = $eip $T0 4 + ^ = $ebp $T0 ^ = $esp $T0 8 + = 
STACK WIN 4 1d42 25 2 0 4 4 0 0 1 $T0 $ebp = $eip $T0 4 + ^ = $ebp $T0 ^ = $esp $T0 8 + =  $23 $T0 4 - ^ = 
STACK WIN 4 1d6b 1d 6 0 0 0 c 0 1 $T0 $ebp = $eip $T0 4 + ^ = $ebp $T0 ^ = $esp $T0 8 + = 
STACK WIN 4 1d88 1d 6 0 0 0 c 0 1 $T0 $ebp = $eip $T0 4 + ^ = $ebp $T0 ^ = $esp $T0 8 + = 
STACK WIN 4 1da5 d 0 0 0 0 0 0 1 $T0 .raSearch = $eip $T0 ^ = $esp $T0 4 + = 
STACK WIN 4 1db2 197 e 0 0 0 24 0 1 $T0 $ebp = $eip $T0 4 + ^ = $ebp $T0 ^ = $esp $T0 8 + = 
STACK WIN 4 1dc0 187 0 0 0 4 24 0 1 $T0 $ebp = $eip $T0 4 + ^ = $ebp $T0 ^ = $esp $T0 8 + =  $20 $T0 40 - ^ = 
STACK WIN 4 1de8 ef 0 0 0 8 24 0 1 $T0 $ebp = $eip $T0 4 + ^ = $ebp $T0 ^ = $esp $T0 8 + =  $20 $T0 40 - ^ =  $23 $T0 44 - ^ = 
STACK WIN 4 1de9 ed 0 0 0 c 24 0 1 $T0 $ebp = $eip $T0 4 + ^ = $ebp $T0 ^ = $esp $T0 8 + =  $20 $T0 40 - ^ =  $23 $T0 44 - ^ =  $24 $T0 48 - ^ = 
STACK WIN 4 1f49 4 0 0 0 0 0 0 1 $T0 .raSearch = $eip $T0 ^ = $esp $T0 4 + = 
STACK WIN 4 1f4d c 0 0 0 0 0 0 1 $T0 .raSearch = $eip $T0 ^ = $esp $T0 4 + = 
STACK WIN 4 1f59 11 0 0 0 0 0 0 1 $T0 .raSearch = $eip $T0 ^ = $esp $T0 4 + = 
STACK WIN 4 1f6a e 3 0 8 0 0 0 1 $T0 $ebp = $eip $T0 4 + ^ = $ebp $T0 ^ = $esp $T0 8 + = 
STACK WIN 4 1f78 7 0 0 0 0 0 0 1 $T0 .raSearch = $eip $T0 ^ = $esp $T0 4 + = 
STACK WIN 4 1f7f 23 a 0 4 0 0 0 1 $T0 $ebp = $eip $T0 4 + ^ = $ebp $T0 ^ = $esp $T0 8 + = 
STACK WIN 4 1f87 17 2 0 4 4 0 0 1 $T0 $ebp = $eip $T0 4 + ^ = $ebp $T0 ^ = $esp $T0 8 + =  $23 $T0 4 - ^ = 
STACK WIN 4 1fa2 28 3 0 4 0 0 0 1 $T0 $ebp = $eip $T0 4 + ^ = $ebp $T0 ^ = $esp $T0 8 + = 
STACK WIN 4 1fca f9 9 0 0 0 324 0 1 $T0 $ebp = $eip $T0 4 + ^ = $ebp $T0 ^ = $esp $T0 8 + = 
STACK WIN 4 20c3 c 3 0 0 0 0 0 1 $T0 $ebp = $eip $T0 4 + ^ = $ebp $T0 ^ = $esp $T0 8 + = 
STACK WIN 4 20cf ce 9 0 4 0 31c 0 1 $T0 $ebp = $eip $T0 4 + ^ = $ebp $T0 ^ = $esp $T0 8 + = 
STACK WIN 4 219d 114 9 0 c 0 320 0 1 $T0 $ebp = $eip $T0 4 + ^ = $ebp $T0 ^ = $esp $T0 8 + = 
STACK WIN 4 22b1 5 0 0 4 0 0 0 1 $T0 $ebp = $eip $T0 4 + ^ = $ebp $T0 ^ = $esp $T0 8 + = 
STACK WIN 4 2388 3 0 0 0 0 0 0 1 $T0 .raSearch = $eip $T0 ^ = $esp $T0 4 + = 
STACK WIN 4 238b 3 0 0 0 0 0 0 1 $T0 .raSearch = $eip $T0 ^ = $esp $T0 4 + = 
STACK WIN 4 238e 3 0 0 0 0 0 0 1 $T0 .raSearch = $eip $T0 ^ = $esp $T0 4 + = 
STACK WIN 4 2391 3 0 0 4 0 0 0 1 $T0 .raSearch = $eip $T0 ^ = $esp $T0 4 + = 
STACK WIN 4 2394 3 0 0 4 0 0 0 1 $T0 .raSearch = $eip $T0 ^ = $esp $T0 4 + = 
STACK WIN 4 2397 3 0 0 0 0 0 0 1 $T0 .raSearch = $eip $T0 ^ = $esp $T0 4 + = 
STACK WIN 0 11bb d 0 0 0 0 0 0 0 0
STACK WIN 0 124b f 0 0 0 0 0 0 0 0
STACK WIN 0 1328 1f 0 0 0 0 0 0 0 0
STACK WIN 0 17f7 13 0 0 0 0 0 0 0 0
